target datalayout = "e-m:e-p270:32:32-p271:32:32-p272:64:64-i64:64-i128:128-f80:128-n8:16:32:64-S128"
target triple = "x86_64-pc-linux-gnu"

%struct.epan_dissect = type { ptr, ptr, ptr, %struct._packet_info }
%struct._packet_info = type { ptr, ptr, i32, i32, %struct.nstime_t, %struct.nstime_t, %struct.nstime_t, i8, ptr, ptr, ptr, ptr, %struct._address, %struct._address, %struct._address, %struct._address, %struct._address, %struct._address, i32, ptr, i8, [3 x i8], %struct.anon, i32, i32, i32, i32, ptr, i8, ptr, ptr, i16, i16, i32, i32, i16, i32, i32, ptr, ptr, ptr, i8, i8, i16, i16, i16, i32, i16, i16, ptr, ptr, ptr, ptr, ptr, i32, i32 }
%struct.nstime_t = type { i64, i32 }
%struct._address = type { i32, i32, ptr, ptr }
%struct.anon = type { i8, [3 x i8] }
%struct._output_fields = type { i8, i8, i8, i8, i8, ptr, ptr, ptr, ptr, ptr, i8, i8, i8 }
%struct.write_json_data = type { ptr, ptr, i8, i8, ptr, ptr }

@.str.14 = private unnamed_addr constant [6 x i8] c"_type\00", align 1
@.str.15 = private unnamed_addr constant [4 x i8] c"doc\00", align 1
@.str.18 = private unnamed_addr constant [7 x i8] c"layers\00", align 1
@.str.19 = private unnamed_addr constant [7 x i8] c"_score\00", align 1
@.str.20 = private unnamed_addr constant [8 x i8] c"_source\00", align 1

; Function Attrs: null_pointer_is_valid sspstrong uwtable
define internal void @write_json_proto_node_children(ptr noundef %0, ptr noundef %1) #0 {
  %3 = alloca ptr, align 8
  %4 = alloca ptr, align 8
  %5 = alloca ptr, align 8
  store ptr %0, ptr %3, align 8
  store ptr %1, ptr %4, align 8
  call void @llvm.lifetime.start.p0(i64 8, ptr %5) #15
  %6 = load ptr, ptr %4, align 8
  %7 = getelementptr inbounds nuw %struct.write_json_data, ptr %6, i32 0, i32 4
  %8 = load ptr, ptr %7, align 8
  %9 = load ptr, ptr %3, align 8
  %10 = call ptr %8(ptr noundef %9)
  store ptr %10, ptr %5, align 8
  %11 = load ptr, ptr %5, align 8
  %12 = load ptr, ptr %4, align 8
  call void @write_json_proto_node_list(ptr noundef %11, ptr noundef %12)
  %13 = load ptr, ptr %5, align 8
  call void @g_slist_free_full(ptr noundef %13, ptr noundef @g_slist_free)
  call void @llvm.lifetime.end.p0(i64 8, ptr %5) #15
  ret void
}

; Function Attrs: null_pointer_is_valid sspstrong uwtable
define void @write_json_proto_tree(ptr noundef %0, i32 noundef %1, i1 noundef zeroext %2, ptr noundef %3, ptr noundef %4, ptr noundef %5, ptr noundef %6) #0 {
  %8 = alloca ptr, align 8
  %9 = alloca i32, align 4
  %10 = alloca i8, align 1
  %11 = alloca ptr, align 8
  %12 = alloca ptr, align 8
  %13 = alloca ptr, align 8
  %14 = alloca ptr, align 8
  %15 = alloca %struct.write_json_data, align 8
  store ptr %0, ptr %8, align 8
  store i32 %1, ptr %9, align 4
  %16 = zext i1 %2 to i8
  store i8 %16, ptr %10, align 1
  store ptr %3, ptr %11, align 8
  store ptr %4, ptr %12, align 8
  store ptr %5, ptr %13, align 8
  store ptr %6, ptr %14, align 8
  call void @llvm.lifetime.start.p0(i64 40, ptr %15) #15
  %17 = load ptr, ptr %14, align 8
  %18 = getelementptr inbounds nuw %struct.write_json_data, ptr %15, i32 0, i32 5
  store ptr %17, ptr %18, align 8
  %19 = load ptr, ptr %14, align 8
  call void @json_dumper_begin_object(ptr noundef %19)
  %20 = load ptr, ptr %14, align 8
  %21 = load ptr, ptr %11, align 8
  call void @write_json_index(ptr noundef %20, ptr noundef %21)
  %22 = load ptr, ptr %14, align 8
  call void @json_dumper_set_member_name(ptr noundef %22, ptr noundef @.str.14)
  %23 = load ptr, ptr %14, align 8
  call void @json_dumper_value_string(ptr noundef %23, ptr noundef @.str.15)
  %24 = load ptr, ptr %14, align 8
  call void @json_dumper_set_member_name(ptr noundef %24, ptr noundef @.str.19)
  %25 = load ptr, ptr %14, align 8
  call void @json_dumper_value_string(ptr noundef %25, ptr noundef null)
  %26 = load ptr, ptr %14, align 8
  call void @json_dumper_set_member_name(ptr noundef %26, ptr noundef @.str.20)
  %27 = load ptr, ptr %14, align 8
  call void @json_dumper_begin_object(ptr noundef %27)
  %28 = load ptr, ptr %14, align 8
  call void @json_dumper_set_member_name(ptr noundef %28, ptr noundef @.str.18)
  %29 = load ptr, ptr %8, align 8
  %30 = icmp eq ptr %29, null
  br i1 %30, label %36, label %31

31:                                               ; preds = %7
  %32 = load ptr, ptr %8, align 8
  %33 = getelementptr inbounds nuw %struct._output_fields, ptr %32, i32 0, i32 5
  %34 = load ptr, ptr %33, align 8
  %35 = icmp eq ptr %34, null
  br i1 %35, label %36, label %67

36:                                               ; preds = %31, %7
  %37 = load ptr, ptr %11, align 8
  %38 = getelementptr inbounds nuw %struct.epan_dissect, ptr %37, i32 0, i32 3
  %39 = getelementptr inbounds nuw %struct._packet_info, ptr %38, i32 0, i32 11
  %40 = load ptr, ptr %39, align 8
  %41 = getelementptr inbounds nuw %struct.write_json_data, ptr %15, i32 0, i32 0
  store ptr %40, ptr %41, align 8
  %42 = load ptr, ptr %8, align 8
  %43 = icmp ne ptr %42, null
  br i1 %43, label %44, label %48

44:                                               ; preds = %36
  %45 = load ptr, ptr %8, align 8
  %46 = getelementptr inbounds nuw %struct._output_fields, ptr %45, i32 0, i32 9
  %47 = load ptr, ptr %46, align 8
  br label %49

48:                                               ; preds = %36
  br label %49

49:                                               ; preds = %48, %44
  %50 = phi ptr [ %47, %44 ], [ null, %48 ]
  %51 = getelementptr inbounds nuw %struct.write_json_data, ptr %15, i32 0, i32 1
  store ptr %50, ptr %51, align 8
  %52 = load i8, ptr %10, align 1, !range !6, !noundef !7
  %53 = trunc i8 %52 to i1
  %54 = getelementptr inbounds nuw %struct.write_json_data, ptr %15, i32 0, i32 2
  %55 = zext i1 %53 to i8
  store i8 %55, ptr %54, align 8
  %56 = getelementptr inbounds nuw %struct.write_json_data, ptr %15, i32 0, i32 3
  store i8 1, ptr %56, align 1
  %57 = load i32, ptr %9, align 4
  %58 = icmp eq i32 %57, 0
  br i1 %58, label %59, label %61

59:                                               ; preds = %49
  %60 = getelementptr inbounds nuw %struct.write_json_data, ptr %15, i32 0, i32 3
  store i8 0, ptr %60, align 1
  br label %61

61:                                               ; preds = %59, %49
  %62 = load ptr, ptr %13, align 8
  %63 = getelementptr inbounds nuw %struct.write_json_data, ptr %15, i32 0, i32 4
  store ptr %62, ptr %63, align 8
  %64 = load ptr, ptr %11, align 8
  %65 = getelementptr inbounds nuw %struct.epan_dissect, ptr %64, i32 0, i32 2
  %66 = load ptr, ptr %65, align 8
  call void @write_json_proto_node_children(ptr noundef %66, ptr noundef %15)
  br label %72

67:                                               ; preds = %31
  %68 = load ptr, ptr %8, align 8
  %69 = load ptr, ptr %11, align 8
  %70 = load ptr, ptr %12, align 8
  %71 = load ptr, ptr %14, align 8
  call void @write_specified_fields(i32 noundef 1, ptr noundef %68, ptr noundef %69, ptr noundef %70, ptr noundef null, ptr noundef %71)
  br label %72

72:                                               ; preds = %67, %61
  %73 = load ptr, ptr %14, align 8
  call void @json_dumper_end_object(ptr noundef %73)
  %74 = load ptr, ptr %14, align 8
  call void @json_dumper_end_object(ptr noundef %74)
  call void @llvm.lifetime.end.p0(i64 40, ptr %15) #15
  ret void
}