; Function Attrs: null_pointer_is_valid sspstrong uwtable
define void @write_json_proto_tree(ptr noundef %0, i32 noundef %1, i1 noundef zeroext %2, ptr noundef %3, ptr noundef readnone captures(none) %4, ptr noundef %5, ptr noundef %6) local_unnamed_addr #0 {
  %8 = alloca %struct.write_json_data, align 8
  %9 = zext i1 %2 to i8
  call void @llvm.lifetime.start.p0(i64 40, ptr nonnull %8) #21
  %10 = getelementptr inbounds nuw i8, ptr %8, i64 32
  store ptr %6, ptr %10, align 8
  tail call void @json_dumper_begin_object(ptr noundef %6)
  tail call fastcc void @write_json_index(ptr noundef %6, ptr noundef %3)
  tail call void @json_dumper_set_member_name(ptr noundef %6, ptr noundef nonnull @.str.14)
  tail call void @json_dumper_value_string(ptr noundef %6, ptr noundef nonnull @.str.15)
  tail call void @json_dumper_set_member_name(ptr noundef %6, ptr noundef nonnull @.str.19)
  tail call void @json_dumper_value_string(ptr noundef %6, ptr noundef null)
  tail call void @json_dumper_set_member_name(ptr noundef %6, ptr noundef nonnull @.str.20)
  tail call void @json_dumper_begin_object(ptr noundef %6)
  tail call void @json_dumper_set_member_name(ptr noundef %6, ptr noundef nonnull @.str.18)
  %11 = icmp eq ptr %0, null
  br i1 %11, label %.thread, label %14

.thread:                                          ; preds = %7
  %12 = getelementptr inbounds nuw i8, ptr %3, i64 128
  %13 = load ptr, ptr %12, align 8
  store ptr %13, ptr %8, align 8
  br label %23

14:                                               ; preds = %7
  %15 = getelementptr inbounds nuw i8, ptr %0, i64 8
  %16 = load ptr, ptr %15, align 8
  %17 = icmp eq ptr %16, null
  br i1 %17, label %18, label %33

18:                                               ; preds = %14
  %19 = getelementptr inbounds nuw i8, ptr %3, i64 128
  %20 = load ptr, ptr %19, align 8
  store ptr %20, ptr %8, align 8
  %21 = getelementptr inbounds nuw i8, ptr %0, i64 40
  %22 = load ptr, ptr %21, align 8
  br label %23

23:                                               ; preds = %.thread, %18
  %24 = phi ptr [ %22, %18 ], [ null, %.thread ]
  %25 = getelementptr inbounds nuw i8, ptr %8, i64 8
  store ptr %24, ptr %25, align 8
  %26 = getelementptr inbounds nuw i8, ptr %8, i64 16
  store i8 %9, ptr %26, align 8
  %27 = getelementptr inbounds nuw i8, ptr %8, i64 17
  %28 = icmp ne i32 %1, 0
  %spec.select = zext i1 %28 to i8
  store i8 %spec.select, ptr %27, align 1
  %29 = getelementptr inbounds nuw i8, ptr %8, i64 24
  store ptr %5, ptr %29, align 8
  %30 = getelementptr inbounds nuw i8, ptr %3, i64 16
  %31 = load ptr, ptr %30, align 8
  %32 = tail call ptr %5(ptr noundef %31)
  call fastcc void @write_json_proto_node_list(ptr noundef %32, ptr noundef nonnull %8)
  call void @g_slist_free_full(ptr noundef %32, ptr noundef nonnull @g_slist_free)
  br label %34

33:                                               ; preds = %14
  tail call fastcc void @write_specified_fields(i32 noundef 1, ptr noundef nonnull %0, ptr noundef %3, ptr noundef null, ptr noundef %6)
  br label %34

34:                                               ; preds = %33, %23
  call void @json_dumper_end_object(ptr noundef %6)
  call void @json_dumper_end_object(ptr noundef %6)
  call void @llvm.lifetime.end.p0(i64 40, ptr nonnull %8) #21
  ret void
}